; Function Attrs: nounwind uwtable
define hidden void @aom_highbd_dc_predictor_4x4_c(ptr noundef %0, i64 noundef %1, ptr nocapture noundef readonly %2, ptr nocapture noundef readonly %3, i32 noundef %4) local_unnamed_addr #1 {
  br label %.lr.ph.i

.lr.ph.i:                                         ; preds = %.lr.ph.i, %5
  %indvars.iv.i = phi i64 [ 0, %5 ], [ %indvars.iv.next.i, %.lr.ph.i ]
  %.02431.i = phi i32 [ 0, %5 ], [ %9, %.lr.ph.i ]
  %6 = getelementptr inbounds i16, ptr %2, i64 %indvars.iv.i
  %7 = load i16, ptr %6, align 2
  %8 = zext i16 %7 to i32
  %9 = add nuw nsw i32 %.02431.i, %8
  %indvars.iv.next.i = add nuw nsw i64 %indvars.iv.i, 1
  %exitcond.not.i = icmp eq i64 %indvars.iv.next.i, 4
  br i1 %exitcond.not.i, label %.lr.ph34.i, label %.lr.ph.i, !llvm.loop !50

.lr.ph34.i:                                       ; preds = %.lr.ph.i, %.lr.ph34.i
  %indvars.iv43.i = phi i64 [ %indvars.iv.next44.i, %.lr.ph34.i ], [ 0, %.lr.ph.i ]
  %.133.i = phi i32 [ %13, %.lr.ph34.i ], [ %9, %.lr.ph.i ]
  %10 = getelementptr inbounds i16, ptr %3, i64 %indvars.iv43.i
  %11 = load i16, ptr %10, align 2
  %12 = zext i16 %11 to i32
  %13 = add nuw nsw i32 %.133.i, %12
  %indvars.iv.next44.i = add nuw nsw i64 %indvars.iv43.i, 1
  %exitcond47.not.i = icmp eq i64 %indvars.iv.next44.i, 4
  br i1 %exitcond47.not.i, label %._crit_edge.i, label %.lr.ph34.i, !llvm.loop !51

._crit_edge.i:                                    ; preds = %.lr.ph34.i
  %14 = add nuw nsw i32 %13, 4
  %15 = lshr i32 %14, 3
  br label %16

16:                                               ; preds = %16, %._crit_edge.i
  %.037.i = phi ptr [ %0, %._crit_edge.i ], [ %18, %16 ]
  %.02736.i = phi i32 [ 0, %._crit_edge.i ], [ %19, %16 ]
  %17 = tail call ptr @aom_memset16(ptr noundef %.037.i, i32 noundef %15, i64 noundef 4) #8
  %18 = getelementptr inbounds i16, ptr %.037.i, i64 %1
  %19 = add nuw nsw i32 %.02736.i, 1
  %exitcond48.not.i = icmp eq i32 %19, 4
  br i1 %exitcond48.not.i, label %highbd_dc_predictor.exit, label %16, !llvm.loop !52

highbd_dc_predictor.exit:                         ; preds = %16
  ret void
}